target datalayout = "e-m:e-p270:32:32-p271:32:32-p272:64:64-i64:64-i128:128-f80:128-n8:16:32:64-S128"
target triple = "x86_64-pc-linux-gnu"

%"class.llvm::MCRegisterClass" = type { ptr, ptr, i32, i16, i16, i16, i16, i8, i8, i8 }
%"class.llvm::TargetRegisterClass" = type { ptr, ptr, ptr, %"struct.llvm::LaneBitmask", i8, i8, i8, i8, i8, ptr, ptr }
%"struct.llvm::LaneBitmask" = type { i64 }

; Function Attrs: mustprogress nounwind uwtable
define linkonce_odr hidden noundef i32 @_ZNK4llvm15MCRegisterClass5getIDEv(ptr noundef nonnull align 8 dereferenceable(32) %0) #0 comdat align 2 {
  %2 = alloca ptr, align 8
  store ptr %0, ptr %2, align 8
  %3 = load ptr, ptr %2, align 8
  %4 = getelementptr inbounds nuw %"class.llvm::MCRegisterClass", ptr %3, i32 0, i32 5
  %5 = load i16, ptr %4, align 8
  %6 = zext i16 %5 to i32
  ret i32 %6
}

; Function Attrs: mustprogress nounwind uwtable
define linkonce_odr hidden noundef i32 @_ZNK4llvm19TargetRegisterClass5getIDEv(ptr noundef nonnull align 8 dereferenceable(56) %0) #0 comdat align 2 {
  %2 = alloca ptr, align 8
  store ptr %0, ptr %2, align 8
  %3 = load ptr, ptr %2, align 8
  %4 = getelementptr inbounds nuw %"class.llvm::TargetRegisterClass", ptr %3, i32 0, i32 0
  %5 = load ptr, ptr %4, align 8
  %6 = call noundef i32 @_ZNK4llvm15MCRegisterClass5getIDEv(ptr noundef nonnull align 8 dereferenceable(32) %5)
  ret i32 %6
}

; Function Attrs: mustprogress nounwind uwtable
define linkonce_odr hidden noundef zeroext i1 @_ZNK4llvm19TargetRegisterClass13hasSubClassEqEPKS0_(ptr noundef nonnull align 8 dereferenceable(56) %0, ptr noundef %1) #0 comdat align 2 {
  %3 = alloca ptr, align 8
  %4 = alloca ptr, align 8
  %5 = alloca i32, align 4
  store ptr %0, ptr %3, align 8
  store ptr %1, ptr %4, align 8
  %6 = load ptr, ptr %3, align 8
  %7 = load ptr, ptr %4, align 8
  %8 = call noundef i32 @_ZNK4llvm19TargetRegisterClass5getIDEv(ptr noundef nonnull align 8 dereferenceable(56) %7)
  store i32 %8, ptr %5, align 4
  %9 = getelementptr inbounds nuw %"class.llvm::TargetRegisterClass", ptr %6, i32 0, i32 1
  %10 = load ptr, ptr %9, align 8
  %11 = load i32, ptr %5, align 4
  %12 = udiv i32 %11, 32
  %13 = zext i32 %12 to i64
  %14 = getelementptr inbounds i32, ptr %10, i64 %13
  %15 = load i32, ptr %14, align 4
  %16 = load i32, ptr %5, align 4
  %17 = urem i32 %16, 32
  %18 = lshr i32 %15, %17
  %19 = and i32 %18, 1
  %20 = icmp ne i32 %19, 0
  ret i1 %20
}

; Function Attrs: mustprogress nounwind uwtable
define linkonce_odr hidden noundef zeroext i1 @_ZNK4llvm19TargetRegisterClass15hasSuperClassEqEPKS0_(ptr noundef nonnull align 8 dereferenceable(56) %0, ptr noundef %1) #0 comdat align 2 {
  %3 = alloca ptr, align 8
  %4 = alloca ptr, align 8
  store ptr %0, ptr %3, align 8
  store ptr %1, ptr %4, align 8
  %5 = load ptr, ptr %3, align 8
  %6 = load ptr, ptr %4, align 8
  %7 = call noundef zeroext i1 @_ZNK4llvm19TargetRegisterClass13hasSubClassEqEPKS0_(ptr noundef nonnull align 8 dereferenceable(56) %6, ptr noundef %5)
  ret i1 %7
}

; Function Attrs: mustprogress nounwind uwtable
define dso_local noundef zeroext i1 @_ZNK4llvm15X86RegisterInfo20shouldRewriteCopySrcEPKNS_19TargetRegisterClassEjS3_j(ptr noundef nonnull align 8 dereferenceable(328) %0, ptr noundef %1, i32 noundef %2, ptr noundef %3, i32 noundef %4) unnamed_addr #0 align 2 {
  %6 = alloca i1, align 1
  %7 = alloca ptr, align 8
  %8 = alloca ptr, align 8
  %9 = alloca i32, align 4
  %10 = alloca ptr, align 8
  %11 = alloca i32, align 4
  store ptr %0, ptr %7, align 8
  store ptr %1, ptr %8, align 8
  store i32 %2, ptr %9, align 4
  store ptr %3, ptr %10, align 8
  store i32 %4, ptr %11, align 4
  %12 = load ptr, ptr %7, align 8
  %13 = load ptr, ptr %8, align 8
  %14 = call noundef zeroext i1 @_ZNK4llvm19TargetRegisterClass15hasSuperClassEqEPKS0_(ptr noundef nonnull align 8 dereferenceable(56) %13, ptr noundef @_ZN4llvm3X8612GR64RegClassE)
  br i1 %14, label %15, label %25

15:                                               ; preds = %5
  %16 = load i32, ptr %9, align 4
  %17 = icmp eq i32 %16, 0
  br i1 %17, label %18, label %25

18:                                               ; preds = %15
  %19 = load ptr, ptr %10, align 8
  %20 = call noundef zeroext i1 @_ZNK4llvm19TargetRegisterClass15hasSuperClassEqEPKS0_(ptr noundef nonnull align 8 dereferenceable(56) %19, ptr noundef @_ZN4llvm3X8612GR64RegClassE)
  br i1 %20, label %21, label %25

21:                                               ; preds = %18
  %22 = load i32, ptr %11, align 4
  %23 = icmp eq i32 %22, 6
  br i1 %23, label %24, label %25

24:                                               ; preds = %21
  store i1 false, ptr %6, align 1
  br label %31

25:                                               ; preds = %21, %18, %15, %5
  %26 = load ptr, ptr %8, align 8
  %27 = load i32, ptr %9, align 4
  %28 = load ptr, ptr %10, align 8
  %29 = load i32, ptr %11, align 4
  %30 = call noundef zeroext i1 @_ZNK4llvm18TargetRegisterInfo20shouldRewriteCopySrcEPKNS_19TargetRegisterClassEjS3_j(ptr noundef nonnull align 8 dereferenceable(308) %12, ptr noundef %26, i32 noundef %27, ptr noundef %28, i32 noundef %29)
  store i1 %30, ptr %6, align 1
  br label %31

31:                                               ; preds = %25, %24
  %32 = load i1, ptr %6, align 1
  ret i1 %32
}