; Function Attrs: mustprogress nounwind uwtable
define dso_local noundef zeroext i1 @_ZNK4llvm15X86RegisterInfo20shouldRewriteCopySrcEPKNS_19TargetRegisterClassEjS3_j(ptr noundef nonnull align 8 dereferenceable(328) %0, ptr noundef %1, i32 noundef %2, ptr noundef %3, i32 noundef %4) unnamed_addr #2 align 2 {
  %6 = load ptr, ptr %1, align 8
  %7 = getelementptr inbounds nuw i8, ptr %6, i64 24
  %8 = load i16, ptr %7, align 8
  %9 = zext i16 %8 to i32
  %10 = lshr i32 %9, 5
  %11 = zext nneg i32 %10 to i64
  %12 = getelementptr inbounds nuw i32, ptr @_ZN4llvmL16GR64SubClassMaskE, i64 %11
  %13 = load i32, ptr %12, align 4
  %14 = and i32 %9, 31
  %15 = shl nuw i32 1, %14
  %16 = and i32 %15, %13
  %17 = icmp ne i32 %16, 0
  %18 = icmp eq i32 %2, 0
  %or.cond = and i1 %18, %17
  br i1 %or.cond, label %19, label %33

19:                                               ; preds = %5
  %20 = load ptr, ptr %3, align 8
  %21 = getelementptr inbounds nuw i8, ptr %20, i64 24
  %22 = load i16, ptr %21, align 8
  %23 = zext i16 %22 to i32
  %24 = lshr i32 %23, 5
  %25 = zext nneg i32 %24 to i64
  %26 = getelementptr inbounds nuw i32, ptr @_ZN4llvmL16GR64SubClassMaskE, i64 %25
  %27 = load i32, ptr %26, align 4
  %28 = and i32 %23, 31
  %29 = shl nuw i32 1, %28
  %30 = and i32 %29, %27
  %31 = icmp ne i32 %30, 0
  %32 = icmp eq i32 %4, 6
  %or.cond3 = and i1 %32, %31
  br i1 %or.cond3, label %35, label %33

33:                                               ; preds = %19, %5
  %34 = tail call noundef zeroext i1 @_ZNK4llvm18TargetRegisterInfo20shouldRewriteCopySrcEPKNS_19TargetRegisterClassEjS3_j(ptr noundef nonnull align 8 dereferenceable(308) %0, ptr noundef nonnull %1, i32 noundef %2, ptr noundef %3, i32 noundef %4) #22
  br label %35

35:                                               ; preds = %19, %33
  %.0 = phi i1 [ %34, %33 ], [ false, %19 ]
  ret i1 %.0
}